target datalayout = "e-m:e-p270:32:32-p271:32:32-p272:64:64-i64:64-i128:128-f80:128-n8:16:32:64-S128"
target triple = "x86_64-pc-linux-gnu"

; Function Attrs: nounwind sspstrong uwtable
define internal i64 @fun_so_eucjp_to_stateless_iso2022jp(ptr noundef %0, ptr noundef %1, i64 noundef %2, ptr noundef %3, i64 noundef %4) #0 {
  %6 = alloca ptr, align 8
  %7 = alloca ptr, align 8
  %8 = alloca i64, align 8
  %9 = alloca ptr, align 8
  %10 = alloca i64, align 8
  store ptr %0, ptr %6, align 8, !tbaa !6
  store ptr %1, ptr %7, align 8, !tbaa !10
  store i64 %2, ptr %8, align 8, !tbaa !13
  store ptr %3, ptr %9, align 8, !tbaa !10
  store i64 %4, ptr %10, align 8, !tbaa !13
  %11 = load ptr, ptr %9, align 8, !tbaa !10
  %12 = getelementptr inbounds i8, ptr %11, i64 0
  store i8 -110, ptr %12, align 1, !tbaa !12
  %13 = load ptr, ptr %7, align 8, !tbaa !10
  %14 = getelementptr inbounds i8, ptr %13, i64 0
  %15 = load i8, ptr %14, align 1, !tbaa !12
  %16 = load ptr, ptr %9, align 8, !tbaa !10
  %17 = getelementptr inbounds i8, ptr %16, i64 1
  store i8 %15, ptr %17, align 1, !tbaa !12
  %18 = load ptr, ptr %7, align 8, !tbaa !10
  %19 = getelementptr inbounds i8, ptr %18, i64 1
  %20 = load i8, ptr %19, align 1, !tbaa !12
  %21 = load ptr, ptr %9, align 8, !tbaa !10
  %22 = getelementptr inbounds i8, ptr %21, i64 2
  store i8 %20, ptr %22, align 1, !tbaa !12
  ret i64 3
}