; Function Attrs: mustprogress nofree norecurse nosync nounwind sspstrong willreturn memory(argmem: readwrite) uwtable
define internal noundef i64 @fun_so_eucjp_to_stateless_iso2022jp(ptr readnone captures(none) %0, ptr noundef readonly captures(none) %1, i64 %2, ptr noundef writeonly captures(none) initializes((0, 3)) %3, i64 %4) #4 {
  store i8 -110, ptr %3, align 1, !tbaa !6
  %6 = load i8, ptr %1, align 1, !tbaa !6
  %7 = getelementptr inbounds nuw i8, ptr %3, i64 1
  store i8 %6, ptr %7, align 1, !tbaa !6
  %8 = getelementptr inbounds nuw i8, ptr %1, i64 1
  %9 = load i8, ptr %8, align 1, !tbaa !6
  %10 = getelementptr inbounds nuw i8, ptr %3, i64 2
  store i8 %9, ptr %10, align 1, !tbaa !6
  ret i64 3
}